; Function Attrs: mustprogress nounwind uwtable
define hidden void @_ZN18ConcurrentGCThread16create_and_startE14ThreadPriority(ptr noundef nonnull align 8 dereferenceable(918) %0, i32 noundef %1) local_unnamed_addr #0 align 2 {
  %3 = tail call noundef zeroext i1 @_ZN2os13create_threadEP6ThreadNS_10ThreadTypeEm(ptr noundef nonnull %0, i32 noundef 1, i64 noundef 0) #4
  br i1 %3, label %4, label %6

4:                                                ; preds = %2
  %5 = tail call noundef i32 @_ZN2os12set_priorityEP6Thread14ThreadPriority(ptr noundef nonnull %0, i32 noundef %1) #4
  tail call void @_ZN2os12start_threadEP6Thread(ptr noundef nonnull %0) #4
  br label %6

6:                                                ; preds = %4, %2
  ret void
}